target datalayout = "e-m:e-p270:32:32-p271:32:32-p272:64:64-i64:64-i128:128-f80:128-n8:16:32:64-S128"
target triple = "x86_64-pc-linux-gnu"

%struct.H5O_fsinfo_t = type { i32, i32, i8, i64, i64, i64, i64, [12 x i64], i8 }

@H5O_fsinfo_ver_bounds = internal constant [6 x i32] [i32 256, i32 256, i32 1, i32 1, i32 1, i32 1], align 16
@.str.1 = private unnamed_addr constant [103 x i8] c"generated/home/dtcxzyw/WorkSpace/Projects/compilers/llvm-opt-benchmark/bench/hdf5/hdf5/src/H5Ofsinfo.c\00", align 1
@__func__.H5O_fsinfo_set_version = private unnamed_addr constant [23 x i8] c"H5O_fsinfo_set_version\00", align 1
@H5E_OHDR_g = external global i64, align 8
@H5E_BADRANGE_g = external global i64, align 8
@.str.2 = private unnamed_addr constant [48 x i8] c"File space info message's version out of bounds\00", align 1

; Function Attrs: nounwind uwtable
define i32 @H5O_fsinfo_set_version(i32 noundef %0, i32 noundef %1, ptr noundef %2) #0 {
  %4 = alloca i32, align 4
  %5 = alloca i32, align 4
  %6 = alloca ptr, align 8
  %7 = alloca i32, align 4
  %8 = alloca i32, align 4
  %9 = alloca i8, align 1
  store i32 %0, ptr %4, align 4
  store i32 %1, ptr %5, align 4
  store ptr %2, ptr %6, align 8
  store i32 0, ptr %8, align 4
  store i8 0, ptr %9, align 1
  store i32 1, ptr %7, align 4
  %10 = load i32, ptr %4, align 4
  %11 = sext i32 %10 to i64
  %12 = getelementptr inbounds [6 x i32], ptr @H5O_fsinfo_ver_bounds, i64 0, i64 %11
  %13 = load i32, ptr %12, align 4
  %14 = icmp ne i32 %13, 256
  br i1 %14, label %15, label %31

15:                                               ; preds = %3
  %16 = load i32, ptr %7, align 4
  %17 = load i32, ptr %4, align 4
  %18 = sext i32 %17 to i64
  %19 = getelementptr inbounds [6 x i32], ptr @H5O_fsinfo_ver_bounds, i64 0, i64 %18
  %20 = load i32, ptr %19, align 4
  %21 = icmp ugt i32 %16, %20
  br i1 %21, label %22, label %24

22:                                               ; preds = %15
  %23 = load i32, ptr %7, align 4
  br label %29

24:                                               ; preds = %15
  %25 = load i32, ptr %4, align 4
  %26 = sext i32 %25 to i64
  %27 = getelementptr inbounds [6 x i32], ptr @H5O_fsinfo_ver_bounds, i64 0, i64 %26
  %28 = load i32, ptr %27, align 4
  br label %29

29:                                               ; preds = %24, %22
  %30 = phi i32 [ %23, %22 ], [ %28, %24 ]
  store i32 %30, ptr %7, align 4
  br label %31

31:                                               ; preds = %29, %3
  %32 = load i32, ptr %5, align 4
  %33 = sext i32 %32 to i64
  %34 = getelementptr inbounds [6 x i32], ptr @H5O_fsinfo_ver_bounds, i64 0, i64 %33
  %35 = load i32, ptr %34, align 4
  %36 = icmp eq i32 %35, 256
  br i1 %36, label %44, label %37

37:                                               ; preds = %31
  %38 = load i32, ptr %7, align 4
  %39 = load i32, ptr %5, align 4
  %40 = sext i32 %39 to i64
  %41 = getelementptr inbounds [6 x i32], ptr @H5O_fsinfo_ver_bounds, i64 0, i64 %40
  %42 = load i32, ptr %41, align 4
  %43 = icmp ugt i32 %38, %42
  br i1 %43, label %44, label %59

44:                                               ; preds = %37, %31
  br label %45

45:                                               ; preds = %44
  br label %46

46:                                               ; preds = %45
  br label %47

47:                                               ; preds = %46
  %48 = load i64, ptr @H5E_OHDR_g, align 8
  %49 = load i64, ptr @H5E_BADRANGE_g, align 8
  %50 = call i32 (ptr, ptr, i32, i64, i64, ptr, ...) @H5E_printf_stack(ptr noundef @.str.1, ptr noundef @__func__.H5O_fsinfo_set_version, i32 noundef 446, i64 noundef %48, i64 noundef %49, ptr noundef @.str.2)
  br label %51

51:                                               ; preds = %47
  store i8 1, ptr %9, align 1
  %52 = load i8, ptr %9, align 1
  %53 = trunc i8 %52 to i1
  %54 = zext i1 %53 to i8
  store i8 %54, ptr %9, align 1
  br label %55

55:                                               ; preds = %51
  br label %56

56:                                               ; preds = %55
  store i32 -1, ptr %8, align 4
  br label %63

57:                                               ; No predecessors!
  br label %58

58:                                               ; preds = %57
  br label %59

59:                                               ; preds = %58, %37
  %60 = load i32, ptr %7, align 4
  %61 = load ptr, ptr %6, align 8
  %62 = getelementptr inbounds %struct.H5O_fsinfo_t, ptr %61, i32 0, i32 0
  store i32 %60, ptr %62, align 8
  br label %63

63:                                               ; preds = %59, %56
  %64 = load i32, ptr %8, align 4
  ret i32 %64
}