; Function Attrs: nounwind uwtable
define range(i32 -1, 1) i32 @H5O_fsinfo_set_version(i32 noundef %0, i32 noundef %1, ptr nocapture noundef writeonly %2) local_unnamed_addr #0 {
  %4 = sext i32 %0 to i64
  %5 = getelementptr inbounds [6 x i32], ptr @H5O_fsinfo_ver_bounds, i64 0, i64 %4
  %6 = load i32, ptr %5, align 4
  %.not.inv = icmp ugt i32 %0, 1
  %.011 = select i1 %.not.inv, i32 %6, i32 1
  %7 = icmp ult i32 %1, 2
  br i1 %7, label %13, label %8

8:                                                ; preds = %3
  %9 = sext i32 %1 to i64
  %10 = getelementptr inbounds [6 x i32], ptr @H5O_fsinfo_ver_bounds, i64 0, i64 %9
  %11 = load i32, ptr %10, align 4
  %12 = icmp ugt i32 %.011, %11
  br i1 %12, label %13, label %17

13:                                               ; preds = %3, %8
  %14 = load i64, ptr @H5E_OHDR_g, align 8
  %15 = load i64, ptr @H5E_BADRANGE_g, align 8
  %16 = tail call i32 (ptr, ptr, i32, i64, i64, ptr, ...) @H5E_printf_stack(ptr noundef nonnull @.str.1, ptr noundef nonnull @__func__.H5O_fsinfo_set_version, i32 noundef 446, i64 noundef %14, i64 noundef %15, ptr noundef nonnull @.str.2) #6
  br label %18

17:                                               ; preds = %8
  store i32 %.011, ptr %2, align 8
  br label %18

18:                                               ; preds = %17, %13
  %.0 = phi i32 [ -1, %13 ], [ 0, %17 ]
  ret i32 %.0
}